; Function Attrs: nounwind uwtable
define dso_local void @strbuf_grow(ptr noundef captures(none) %0, i64 noundef %1) local_unnamed_addr #3 {
  %3 = load i64, ptr %0, align 8, !tbaa !15
  %.not = icmp eq i64 %3, 0
  %4 = icmp eq i64 %1, -1
  br i1 %4, label %10, label %5

5:                                                ; preds = %2
  %6 = getelementptr inbounds nuw i8, ptr %0, i64 8
  %7 = load i64, ptr %6, align 8, !tbaa !16
  %8 = sub nuw i64 -2, %1
  %9 = icmp ult i64 %8, %7
  br i1 %9, label %10, label %11

10:                                               ; preds = %5, %2
  tail call void (ptr, ...) @die(ptr noundef nonnull @.str) #24
  unreachable

11:                                               ; preds = %5
  br i1 %.not, label %12, label %14

12:                                               ; preds = %11
  %13 = getelementptr inbounds nuw i8, ptr %0, i64 16
  store ptr null, ptr %13, align 8, !tbaa !12
  br label %14

14:                                               ; preds = %11, %12
  %15 = add nuw i64 %1, 1
  %16 = add i64 %15, %7
  %17 = icmp ugt i64 %16, %3
  br i1 %17, label %st_mult.exit, label %24

st_mult.exit:                                     ; preds = %14
  %18 = mul i64 %3, 3
  %19 = add i64 %18, 48
  %20 = lshr i64 %19, 1
  %. = tail call i64 @llvm.umax.i64(i64 %20, i64 %16)
  store i64 %., ptr %0, align 8, !tbaa !15
  %21 = getelementptr inbounds nuw i8, ptr %0, i64 16
  %22 = load ptr, ptr %21, align 8, !tbaa !12
  %23 = tail call ptr @xrealloc(ptr noundef %22, i64 noundef %.) #25
  store ptr %23, ptr %21, align 8, !tbaa !12
  br label %24

24:                                               ; preds = %st_mult.exit, %14
  br i1 %.not, label %25, label %28

25:                                               ; preds = %24
  %26 = getelementptr inbounds nuw i8, ptr %0, i64 16
  %27 = load ptr, ptr %26, align 8, !tbaa !12
  store i8 0, ptr %27, align 1, !tbaa !4
  br label %28

28:                                               ; preds = %25, %24
  ret void
}